target datalayout = "e-m:e-p270:32:32-p271:32:32-p272:64:64-i64:64-i128:128-f80:128-n8:16:32:64-S128"
target triple = "x86_64-pc-linux-gnu"

%struct.ComplexDateData = type { i32, i32, i64, float, i32, i32, i32, i32, i64 }

; Function Attrs: inlinehint nounwind sspstrong uwtable
define internal i32 @df_local_to_utc(i32 noundef %0, i32 noundef %1) #3 {
  %3 = alloca i32, align 4
  %4 = alloca i32, align 4
  store i32 %0, ptr %3, align 4, !tbaa !19
  store i32 %1, ptr %4, align 4, !tbaa !19
  %5 = load i32, ptr %4, align 4, !tbaa !19
  %6 = load i32, ptr %3, align 4, !tbaa !19
  %7 = sub nsw i32 %6, %5
  store i32 %7, ptr %3, align 4, !tbaa !19
  %8 = load i32, ptr %3, align 4, !tbaa !19
  %9 = icmp slt i32 %8, 0
  br i1 %9, label %10, label %13

10:                                               ; preds = %2
  %11 = load i32, ptr %3, align 4, !tbaa !19
  %12 = add nsw i32 %11, 86400
  store i32 %12, ptr %3, align 4, !tbaa !19
  br label %20

13:                                               ; preds = %2
  %14 = load i32, ptr %3, align 4, !tbaa !19
  %15 = icmp sge i32 %14, 86400
  br i1 %15, label %16, label %19

16:                                               ; preds = %13
  %17 = load i32, ptr %3, align 4, !tbaa !19
  %18 = sub nsw i32 %17, 86400
  store i32 %18, ptr %3, align 4, !tbaa !19
  br label %19

19:                                               ; preds = %16, %13
  br label %20

20:                                               ; preds = %19, %10
  %21 = load i32, ptr %3, align 4, !tbaa !19
  ret i32 %21
}

; Function Attrs: inlinehint nounwind sspstrong uwtable
define internal i32 @time_to_df(i32 noundef %0, i32 noundef %1, i32 noundef %2) #3 {
  %4 = alloca i32, align 4
  %5 = alloca i32, align 4
  %6 = alloca i32, align 4
  store i32 %0, ptr %4, align 4, !tbaa !19
  store i32 %1, ptr %5, align 4, !tbaa !19
  store i32 %2, ptr %6, align 4, !tbaa !19
  %7 = load i32, ptr %4, align 4, !tbaa !19
  %8 = mul nsw i32 %7, 3600
  %9 = load i32, ptr %5, align 4, !tbaa !19
  %10 = mul nsw i32 %9, 60
  %11 = add nsw i32 %8, %10
  %12 = load i32, ptr %6, align 4, !tbaa !19
  %13 = add nsw i32 %11, %12
  ret i32 %13
}

; Function Attrs: nounwind sspstrong uwtable
define internal void @c_jd_to_civil(i32 noundef %0, double noundef %1, ptr noundef %2, ptr noundef %3, ptr noundef %4) #0 {
  %6 = alloca i32, align 4
  %7 = alloca double, align 8
  %8 = alloca ptr, align 8
  %9 = alloca ptr, align 8
  %10 = alloca ptr, align 8
  %11 = alloca double, align 8
  %12 = alloca double, align 8
  %13 = alloca double, align 8
  %14 = alloca double, align 8
  %15 = alloca double, align 8
  %16 = alloca double, align 8
  %17 = alloca double, align 8
  %18 = alloca double, align 8
  %19 = alloca double, align 8
  store i32 %0, ptr %6, align 4, !tbaa !19
  store double %1, ptr %7, align 8, !tbaa !10
  store ptr %2, ptr %8, align 8, !tbaa !71
  store ptr %3, ptr %9, align 8, !tbaa !71
  store ptr %4, ptr %10, align 8, !tbaa !71
  call void @llvm.lifetime.start.p0(i64 8, ptr %11) #23
  call void @llvm.lifetime.start.p0(i64 8, ptr %12) #23
  call void @llvm.lifetime.start.p0(i64 8, ptr %13) #23
  call void @llvm.lifetime.start.p0(i64 8, ptr %14) #23
  call void @llvm.lifetime.start.p0(i64 8, ptr %15) #23
  call void @llvm.lifetime.start.p0(i64 8, ptr %16) #23
  call void @llvm.lifetime.start.p0(i64 8, ptr %17) #23
  call void @llvm.lifetime.start.p0(i64 8, ptr %18) #23
  call void @llvm.lifetime.start.p0(i64 8, ptr %19) #23
  %20 = load i32, ptr %6, align 4, !tbaa !19
  %21 = sitofp i32 %20 to double
  %22 = load double, ptr %7, align 8, !tbaa !10
  %23 = fcmp olt double %21, %22
  br i1 %23, label %24, label %27

24:                                               ; preds = %5
  %25 = load i32, ptr %6, align 4, !tbaa !19
  %26 = sitofp i32 %25 to double
  store double %26, ptr %12, align 8, !tbaa !10
  br label %42

27:                                               ; preds = %5
  %28 = load i32, ptr %6, align 4, !tbaa !19
  %29 = sitofp i32 %28 to double
  %30 = fsub double %29, 0x413C7DD040000000
  %31 = fdiv double %30, 0x40E1D58800000000
  %32 = call double @llvm.floor.f64(double %31)
  store double %32, ptr %11, align 8, !tbaa !10
  %33 = load i32, ptr %6, align 4, !tbaa !19
  %34 = add nsw i32 %33, 1
  %35 = sitofp i32 %34 to double
  %36 = load double, ptr %11, align 8, !tbaa !10
  %37 = fadd double %35, %36
  %38 = load double, ptr %11, align 8, !tbaa !10
  %39 = fdiv double %38, 4.000000e+00
  %40 = call double @llvm.floor.f64(double %39)
  %41 = fsub double %37, %40
  store double %41, ptr %12, align 8, !tbaa !10
  br label %42

42:                                               ; preds = %27, %24
  %43 = load double, ptr %12, align 8, !tbaa !10
  %44 = fadd double %43, 1.524000e+03
  store double %44, ptr %13, align 8, !tbaa !10
  %45 = load double, ptr %13, align 8, !tbaa !10
  %46 = fsub double %45, 1.221000e+02
  %47 = fdiv double %46, 3.652500e+02
  %48 = call double @llvm.floor.f64(double %47)
  store double %48, ptr %14, align 8, !tbaa !10
  %49 = load double, ptr %14, align 8, !tbaa !10
  %50 = fmul double 3.652500e+02, %49
  %51 = call double @llvm.floor.f64(double %50)
  store double %51, ptr %15, align 8, !tbaa !10
  %52 = load double, ptr %13, align 8, !tbaa !10
  %53 = load double, ptr %15, align 8, !tbaa !10
  %54 = fsub double %52, %53
  %55 = fdiv double %54, 3.060010e+01
  %56 = call double @llvm.floor.f64(double %55)
  store double %56, ptr %16, align 8, !tbaa !10
  %57 = load double, ptr %13, align 8, !tbaa !10
  %58 = load double, ptr %15, align 8, !tbaa !10
  %59 = fsub double %57, %58
  %60 = load double, ptr %16, align 8, !tbaa !10
  %61 = fmul double 3.060010e+01, %60
  %62 = call double @llvm.floor.f64(double %61)
  %63 = fsub double %59, %62
  store double %63, ptr %19, align 8, !tbaa !10
  %64 = load double, ptr %16, align 8, !tbaa !10
  %65 = fcmp ole double %64, 1.300000e+01
  br i1 %65, label %66, label %71

66:                                               ; preds = %42
  %67 = load double, ptr %16, align 8, !tbaa !10
  %68 = fsub double %67, 1.000000e+00
  store double %68, ptr %18, align 8, !tbaa !10
  %69 = load double, ptr %14, align 8, !tbaa !10
  %70 = fsub double %69, 4.716000e+03
  store double %70, ptr %17, align 8, !tbaa !10
  br label %76

71:                                               ; preds = %42
  %72 = load double, ptr %16, align 8, !tbaa !10
  %73 = fsub double %72, 1.300000e+01
  store double %73, ptr %18, align 8, !tbaa !10
  %74 = load double, ptr %14, align 8, !tbaa !10
  %75 = fsub double %74, 4.715000e+03
  store double %75, ptr %17, align 8, !tbaa !10
  br label %76

76:                                               ; preds = %71, %66
  %77 = load double, ptr %17, align 8, !tbaa !10
  %78 = fptosi double %77 to i32
  %79 = load ptr, ptr %8, align 8, !tbaa !71
  store i32 %78, ptr %79, align 4, !tbaa !19
  %80 = load double, ptr %18, align 8, !tbaa !10
  %81 = fptosi double %80 to i32
  %82 = load ptr, ptr %9, align 8, !tbaa !71
  store i32 %81, ptr %82, align 4, !tbaa !19
  %83 = load double, ptr %19, align 8, !tbaa !10
  %84 = fptosi double %83 to i32
  %85 = load ptr, ptr %10, align 8, !tbaa !71
  store i32 %84, ptr %85, align 4, !tbaa !19
  call void @llvm.lifetime.end.p0(i64 8, ptr %19) #23
  call void @llvm.lifetime.end.p0(i64 8, ptr %18) #23
  call void @llvm.lifetime.end.p0(i64 8, ptr %17) #23
  call void @llvm.lifetime.end.p0(i64 8, ptr %16) #23
  call void @llvm.lifetime.end.p0(i64 8, ptr %15) #23
  call void @llvm.lifetime.end.p0(i64 8, ptr %14) #23
  call void @llvm.lifetime.end.p0(i64 8, ptr %13) #23
  call void @llvm.lifetime.end.p0(i64 8, ptr %12) #23
  call void @llvm.lifetime.end.p0(i64 8, ptr %11) #23
  ret void
}

; Function Attrs: inlinehint nounwind sspstrong uwtable
define internal i32 @jd_utc_to_local(i32 noundef %0, i32 noundef %1, i32 noundef %2) #3 {
  %4 = alloca i32, align 4
  %5 = alloca i32, align 4
  %6 = alloca i32, align 4
  store i32 %0, ptr %4, align 4, !tbaa !19
  store i32 %1, ptr %5, align 4, !tbaa !19
  store i32 %2, ptr %6, align 4, !tbaa !19
  %7 = load i32, ptr %6, align 4, !tbaa !19
  %8 = load i32, ptr %5, align 4, !tbaa !19
  %9 = add nsw i32 %8, %7
  store i32 %9, ptr %5, align 4, !tbaa !19
  %10 = load i32, ptr %5, align 4, !tbaa !19
  %11 = icmp slt i32 %10, 0
  br i1 %11, label %12, label %15

12:                                               ; preds = %3
  %13 = load i32, ptr %4, align 4, !tbaa !19
  %14 = sub nsw i32 %13, 1
  store i32 %14, ptr %4, align 4, !tbaa !19
  br label %22

15:                                               ; preds = %3
  %16 = load i32, ptr %5, align 4, !tbaa !19
  %17 = icmp sge i32 %16, 86400
  br i1 %17, label %18, label %21

18:                                               ; preds = %15
  %19 = load i32, ptr %4, align 4, !tbaa !19
  %20 = add nsw i32 %19, 1
  store i32 %20, ptr %4, align 4, !tbaa !19
  br label %21

21:                                               ; preds = %18, %15
  br label %22

22:                                               ; preds = %21, %12
  %23 = load i32, ptr %4, align 4, !tbaa !19
  ret i32 %23
}

; Function Attrs: inlinehint nounwind sspstrong uwtable
define internal void @get_c_df(ptr noundef %0) #3 {
  %2 = alloca ptr, align 8
  store ptr %0, ptr %2, align 8, !tbaa !27
  %3 = load ptr, ptr %2, align 8, !tbaa !27
  %4 = load i32, ptr %3, align 8, !tbaa !38
  %5 = and i32 %4, 2
  %6 = icmp ne i32 %5, 0
  br i1 %6, label %34, label %7

7:                                                ; preds = %1
  %8 = load ptr, ptr %2, align 8, !tbaa !27
  %9 = getelementptr inbounds nuw %struct.ComplexDateData, ptr %8, i32 0, i32 5
  %10 = load i32, ptr %9, align 8, !tbaa !38
  %11 = lshr i32 %10, 12
  %12 = and i32 %11, 31
  %13 = load ptr, ptr %2, align 8, !tbaa !27
  %14 = getelementptr inbounds nuw %struct.ComplexDateData, ptr %13, i32 0, i32 5
  %15 = load i32, ptr %14, align 8, !tbaa !38
  %16 = lshr i32 %15, 6
  %17 = and i32 %16, 63
  %18 = load ptr, ptr %2, align 8, !tbaa !27
  %19 = getelementptr inbounds nuw %struct.ComplexDateData, ptr %18, i32 0, i32 5
  %20 = load i32, ptr %19, align 8, !tbaa !38
  %21 = lshr i32 %20, 0
  %22 = and i32 %21, 63
  %23 = call i32 @time_to_df(i32 noundef %12, i32 noundef %17, i32 noundef %22)
  %24 = load ptr, ptr %2, align 8, !tbaa !27
  %25 = getelementptr inbounds nuw %struct.ComplexDateData, ptr %24, i32 0, i32 7
  %26 = load i32, ptr %25, align 8, !tbaa !38
  %27 = call i32 @df_local_to_utc(i32 noundef %23, i32 noundef %26)
  %28 = load ptr, ptr %2, align 8, !tbaa !27
  %29 = getelementptr inbounds nuw %struct.ComplexDateData, ptr %28, i32 0, i32 6
  store i32 %27, ptr %29, align 4, !tbaa !38
  %30 = load ptr, ptr %2, align 8, !tbaa !27
  %31 = getelementptr inbounds nuw %struct.ComplexDateData, ptr %30, i32 0, i32 0
  %32 = load i32, ptr %31, align 8, !tbaa !38
  %33 = or i32 %32, 2
  store i32 %33, ptr %31, align 8, !tbaa !38
  br label %34

34:                                               ; preds = %7, %1
  ret void
}

; Function Attrs: inlinehint nounwind sspstrong uwtable
define internal void @get_c_civil(ptr noundef %0) #3 {
  %2 = alloca ptr, align 8
  %3 = alloca i32, align 4
  %4 = alloca i32, align 4
  %5 = alloca i32, align 4
  %6 = alloca i32, align 4
  %7 = alloca i32, align 4
  %8 = alloca i32, align 4
  %9 = alloca i32, align 4
  store ptr %0, ptr %2, align 8, !tbaa !27
  %10 = load ptr, ptr %2, align 8, !tbaa !27
  %11 = load i32, ptr %10, align 8, !tbaa !38
  %12 = and i32 %11, 4
  %13 = icmp ne i32 %12, 0
  br i1 %13, label %67, label %14

14:                                               ; preds = %1
  call void @llvm.lifetime.start.p0(i64 4, ptr %3) #23
  call void @llvm.lifetime.start.p0(i64 4, ptr %4) #23
  call void @llvm.lifetime.start.p0(i64 4, ptr %5) #23
  call void @llvm.lifetime.start.p0(i64 4, ptr %6) #23
  call void @llvm.lifetime.start.p0(i64 4, ptr %7) #23
  call void @llvm.lifetime.start.p0(i64 4, ptr %8) #23
  call void @llvm.lifetime.start.p0(i64 4, ptr %9) #23
  %15 = load ptr, ptr %2, align 8, !tbaa !27
  call void @get_c_df(ptr noundef %15)
  %16 = load ptr, ptr %2, align 8, !tbaa !27
  %17 = getelementptr inbounds nuw %struct.ComplexDateData, ptr %16, i32 0, i32 1
  %18 = load i32, ptr %17, align 4, !tbaa !38
  %19 = load ptr, ptr %2, align 8, !tbaa !27
  %20 = getelementptr inbounds nuw %struct.ComplexDateData, ptr %19, i32 0, i32 6
  %21 = load i32, ptr %20, align 4, !tbaa !38
  %22 = load ptr, ptr %2, align 8, !tbaa !27
  %23 = getelementptr inbounds nuw %struct.ComplexDateData, ptr %22, i32 0, i32 7
  %24 = load i32, ptr %23, align 8, !tbaa !38
  %25 = call i32 @jd_utc_to_local(i32 noundef %18, i32 noundef %21, i32 noundef %24)
  store i32 %25, ptr %3, align 4, !tbaa !19
  %26 = load i32, ptr %3, align 4, !tbaa !19
  %27 = load ptr, ptr %2, align 8, !tbaa !27
  %28 = call double @c_virtual_sg(ptr noundef %27)
  call void @c_jd_to_civil(i32 noundef %26, double noundef %28, ptr noundef %4, ptr noundef %5, ptr noundef %6)
  %29 = load i32, ptr %4, align 4, !tbaa !19
  %30 = load ptr, ptr %2, align 8, !tbaa !27
  %31 = getelementptr inbounds nuw %struct.ComplexDateData, ptr %30, i32 0, i32 4
  store i32 %29, ptr %31, align 4, !tbaa !38
  %32 = load ptr, ptr %2, align 8, !tbaa !27
  %33 = getelementptr inbounds nuw %struct.ComplexDateData, ptr %32, i32 0, i32 5
  %34 = load i32, ptr %33, align 8, !tbaa !38
  %35 = lshr i32 %34, 12
  %36 = and i32 %35, 31
  store i32 %36, ptr %7, align 4, !tbaa !19
  %37 = load ptr, ptr %2, align 8, !tbaa !27
  %38 = getelementptr inbounds nuw %struct.ComplexDateData, ptr %37, i32 0, i32 5
  %39 = load i32, ptr %38, align 8, !tbaa !38
  %40 = lshr i32 %39, 6
  %41 = and i32 %40, 63
  store i32 %41, ptr %8, align 4, !tbaa !19
  %42 = load ptr, ptr %2, align 8, !tbaa !27
  %43 = getelementptr inbounds nuw %struct.ComplexDateData, ptr %42, i32 0, i32 5
  %44 = load i32, ptr %43, align 8, !tbaa !38
  %45 = lshr i32 %44, 0
  %46 = and i32 %45, 63
  store i32 %46, ptr %9, align 4, !tbaa !19
  %47 = load i32, ptr %5, align 4, !tbaa !19
  %48 = shl i32 %47, 22
  %49 = load i32, ptr %6, align 4, !tbaa !19
  %50 = shl i32 %49, 17
  %51 = or i32 %48, %50
  %52 = load i32, ptr %7, align 4, !tbaa !19
  %53 = shl i32 %52, 12
  %54 = or i32 %51, %53
  %55 = load i32, ptr %8, align 4, !tbaa !19
  %56 = shl i32 %55, 6
  %57 = or i32 %54, %56
  %58 = load i32, ptr %9, align 4, !tbaa !19
  %59 = shl i32 %58, 0
  %60 = or i32 %57, %59
  %61 = load ptr, ptr %2, align 8, !tbaa !27
  %62 = getelementptr inbounds nuw %struct.ComplexDateData, ptr %61, i32 0, i32 5
  store i32 %60, ptr %62, align 8, !tbaa !38
  %63 = load ptr, ptr %2, align 8, !tbaa !27
  %64 = getelementptr inbounds nuw %struct.ComplexDateData, ptr %63, i32 0, i32 0
  %65 = load i32, ptr %64, align 8, !tbaa !38
  %66 = or i32 %65, 4
  store i32 %66, ptr %64, align 8, !tbaa !38
  call void @llvm.lifetime.end.p0(i64 4, ptr %9) #23
  call void @llvm.lifetime.end.p0(i64 4, ptr %8) #23
  call void @llvm.lifetime.end.p0(i64 4, ptr %7) #23
  call void @llvm.lifetime.end.p0(i64 4, ptr %6) #23
  call void @llvm.lifetime.end.p0(i64 4, ptr %5) #23
  call void @llvm.lifetime.end.p0(i64 4, ptr %4) #23
  call void @llvm.lifetime.end.p0(i64 4, ptr %3) #23
  br label %67

67:                                               ; preds = %14, %1
  ret void
}