; Function Attrs: inlinehint nounwind sspstrong uwtable
define internal fastcc void @get_c_civil(ptr noundef captures(none) %0) unnamed_addr #5 {
  %2 = load i32, ptr %0, align 8, !tbaa !47
  %3 = and i32 %2, 4
  %.not = icmp eq i32 %3, 0
  br i1 %.not, label %4, label %73

4:                                                ; preds = %1
  %5 = and i32 %2, 2
  %.not.i = icmp eq i32 %5, 0
  br i1 %.not.i, label %6, label %.get_c_df.exit_crit_edge

.get_c_df.exit_crit_edge:                         ; preds = %4
  %.phi.trans.insert = getelementptr inbounds nuw i8, ptr %0, i64 28
  %.pre = load i32, ptr %.phi.trans.insert, align 4, !tbaa !47
  %.phi.trans.insert18 = getelementptr inbounds nuw i8, ptr %0, i64 32
  %.pre19 = load i32, ptr %.phi.trans.insert18, align 8, !tbaa !47
  br label %get_c_df.exit

6:                                                ; preds = %4
  %7 = getelementptr inbounds nuw i8, ptr %0, i64 24
  %8 = load i32, ptr %7, align 8, !tbaa !47
  %9 = lshr i32 %8, 12
  %10 = and i32 %9, 31
  %11 = lshr i32 %8, 6
  %12 = and i32 %11, 63
  %13 = and i32 %8, 63
  %14 = mul nuw nsw i32 %10, 3600
  %15 = mul nuw nsw i32 %12, 60
  %16 = getelementptr inbounds nuw i8, ptr %0, i64 32
  %17 = load i32, ptr %16, align 8, !tbaa !47
  %18 = sub i32 %13, %17
  %19 = add i32 %18, %14
  %20 = add i32 %19, %15
  %21 = icmp slt i32 %20, 0
  %22 = add nsw i32 %20, 86400
  %23 = icmp samesign ugt i32 %20, 86399
  %24 = add nsw i32 %20, -86400
  %spec.select.i.i = select i1 %23, i32 %24, i32 %20
  %.0.i.i = select i1 %21, i32 %22, i32 %spec.select.i.i
  %25 = getelementptr inbounds nuw i8, ptr %0, i64 28
  store i32 %.0.i.i, ptr %25, align 4, !tbaa !47
  %26 = or disjoint i32 %2, 2
  store i32 %26, ptr %0, align 8, !tbaa !47
  br label %get_c_df.exit

get_c_df.exit:                                    ; preds = %.get_c_df.exit_crit_edge, %6
  %27 = phi i32 [ %.pre19, %.get_c_df.exit_crit_edge ], [ %17, %6 ]
  %28 = phi i32 [ %.pre, %.get_c_df.exit_crit_edge ], [ %.0.i.i, %6 ]
  %29 = getelementptr inbounds nuw i8, ptr %0, i64 4
  %30 = load i32, ptr %29, align 4, !tbaa !47
  %31 = add nsw i32 %27, %28
  %32 = icmp samesign ugt i32 %31, 86399
  %33 = zext i1 %32 to i32
  %.inv.i = icmp sgt i32 %31, -1
  %.0.v.i = select i1 %.inv.i, i32 %33, i32 -1
  %.0.i = add nsw i32 %.0.v.i, %30
  %34 = tail call fastcc double @c_virtual_sg(ptr noundef nonnull %0)
  %35 = sitofp i32 %.0.i to double
  %36 = fcmp ogt double %34, %35
  br i1 %36, label %c_jd_to_civil.exit, label %37

37:                                               ; preds = %get_c_df.exit
  %38 = fadd double %35, 0xC13C7DD040000000
  %39 = fdiv double %38, 0x40E1D58800000000
  %40 = tail call double @llvm.floor.f64(double %39)
  %41 = add nsw i32 %.0.i, 1
  %42 = sitofp i32 %41 to double
  %43 = fadd double %40, %42
  %44 = fmul double %40, 2.500000e-01
  %45 = tail call double @llvm.floor.f64(double %44)
  %46 = fsub double %43, %45
  br label %c_jd_to_civil.exit

c_jd_to_civil.exit:                               ; preds = %get_c_df.exit, %37
  %.0.i15 = phi double [ %46, %37 ], [ %35, %get_c_df.exit ]
  %47 = fadd double %.0.i15, 1.524000e+03
  %48 = fadd double %47, -1.221000e+02
  %49 = fdiv double %48, 3.652500e+02
  %50 = tail call double @llvm.floor.f64(double %49)
  %51 = fmul double %50, 3.652500e+02
  %52 = tail call double @llvm.floor.f64(double %51)
  %53 = fsub double %47, %52
  %54 = fdiv double %53, 3.060010e+01
  %55 = tail call double @llvm.floor.f64(double %54)
  %56 = fcmp ugt double %55, 1.300000e+01
  %.026.v.i = select i1 %56, double -4.715000e+03, double -4.716000e+03
  %.026.i = fadd double %50, %.026.v.i
  %.025.v.i = select i1 %56, double -1.300000e+01, double -1.000000e+00
  %.025.i = fadd double %55, %.025.v.i
  %57 = fmul double %55, 3.060010e+01
  %58 = tail call double @llvm.floor.f64(double %57)
  %59 = fsub double %53, %58
  %60 = fptosi double %.026.i to i32
  %61 = fptosi double %.025.i to i32
  %62 = fptosi double %59 to i32
  %63 = getelementptr inbounds nuw i8, ptr %0, i64 20
  store i32 %60, ptr %63, align 4, !tbaa !47
  %64 = getelementptr inbounds nuw i8, ptr %0, i64 24
  %65 = load i32, ptr %64, align 8, !tbaa !47
  %66 = shl i32 %61, 22
  %67 = shl i32 %62, 17
  %68 = and i32 %65, 131071
  %69 = or disjoint i32 %67, %68
  %70 = or i32 %69, %66
  store i32 %70, ptr %64, align 8, !tbaa !47
  %71 = load i32, ptr %0, align 8, !tbaa !47
  %72 = or i32 %71, 4
  store i32 %72, ptr %0, align 8, !tbaa !47
  br label %73

73:                                               ; preds = %c_jd_to_civil.exit, %1
  ret void
}